target datalayout = "e-m:e-p270:32:32-p271:32:32-p272:64:64-i64:64-i128:128-f80:128-n8:16:32:64-S128"
target triple = "x86_64-pc-linux-gnu"

%class.State = type { [315 x i32], [315 x i16], i32, ptr, [2 x ptr] }

; Function Attrs: mustprogress nounwind uwtable
define hidden void @_ZN5State18_sub_Op_LShiftCntVEPK4Node(ptr noundef nonnull align 8 dereferenceable(1920) %0, ptr noundef %1) #1 align 2 {
  %3 = alloca ptr, align 8
  %4 = alloca ptr, align 8
  %5 = alloca i32, align 4
  %6 = alloca i32, align 4
  store ptr %0, ptr %3, align 8
  store ptr %1, ptr %4, align 8
  %7 = load ptr, ptr %3, align 8
  %8 = getelementptr inbounds %class.State, ptr %7, i32 0, i32 4
  %9 = getelementptr inbounds [2 x ptr], ptr %8, i64 0, i64 0
  %10 = load ptr, ptr %9, align 8
  %11 = icmp ne ptr %10, null
  br i1 %11, label %12, label %34

12:                                               ; preds = %2
  %13 = getelementptr inbounds %class.State, ptr %7, i32 0, i32 4
  %14 = getelementptr inbounds [2 x ptr], ptr %13, i64 0, i64 0
  %15 = load ptr, ptr %14, align 8
  %16 = getelementptr inbounds %class.State, ptr %15, i32 0, i32 1
  %17 = getelementptr inbounds [315 x i16], ptr %16, i64 0, i64 17
  %18 = load i16, ptr %17, align 2
  %19 = zext i16 %18 to i32
  %20 = and i32 %19, 1
  %21 = icmp ne i32 %20, 0
  br i1 %21, label %22, label %34

22:                                               ; preds = %12
  %23 = getelementptr inbounds %class.State, ptr %7, i32 0, i32 4
  %24 = getelementptr inbounds [2 x ptr], ptr %23, i64 0, i64 0
  %25 = load ptr, ptr %24, align 8
  %26 = getelementptr inbounds %class.State, ptr %25, i32 0, i32 0
  %27 = getelementptr inbounds [315 x i32], ptr %26, i64 0, i64 17
  %28 = load i32, ptr %27, align 4
  store i32 %28, ptr %5, align 4
  %29 = load i32, ptr %5, align 4
  %30 = getelementptr inbounds %class.State, ptr %7, i32 0, i32 0
  %31 = getelementptr inbounds [315 x i32], ptr %30, i64 0, i64 295
  store i32 %29, ptr %31, align 4
  %32 = getelementptr inbounds %class.State, ptr %7, i32 0, i32 1
  %33 = getelementptr inbounds [315 x i16], ptr %32, i64 0, i64 295
  store i16 591, ptr %33, align 2
  br label %34

34:                                               ; preds = %22, %12, %2
  %35 = getelementptr inbounds %class.State, ptr %7, i32 0, i32 4
  %36 = getelementptr inbounds [2 x ptr], ptr %35, i64 0, i64 0
  %37 = load ptr, ptr %36, align 8
  %38 = icmp ne ptr %37, null
  br i1 %38, label %39, label %68

39:                                               ; preds = %34
  %40 = getelementptr inbounds %class.State, ptr %7, i32 0, i32 4
  %41 = getelementptr inbounds [2 x ptr], ptr %40, i64 0, i64 0
  %42 = load ptr, ptr %41, align 8
  %43 = getelementptr inbounds %class.State, ptr %42, i32 0, i32 1
  %44 = getelementptr inbounds [315 x i16], ptr %43, i64 0, i64 49
  %45 = load i16, ptr %44, align 2
  %46 = zext i16 %45 to i32
  %47 = and i32 %46, 1
  %48 = icmp ne i32 %47, 0
  br i1 %48, label %49, label %68

49:                                               ; preds = %39
  %50 = getelementptr inbounds %class.State, ptr %7, i32 0, i32 4
  %51 = getelementptr inbounds [2 x ptr], ptr %50, i64 0, i64 0
  %52 = load ptr, ptr %51, align 8
  %53 = getelementptr inbounds %class.State, ptr %52, i32 0, i32 0
  %54 = getelementptr inbounds [315 x i32], ptr %53, i64 0, i64 49
  %55 = load i32, ptr %54, align 4
  %56 = add i32 %55, 100
  store i32 %56, ptr %6, align 4
  %57 = load i32, ptr %6, align 4
  %58 = getelementptr inbounds %class.State, ptr %7, i32 0, i32 0
  %59 = getelementptr inbounds [315 x i32], ptr %58, i64 0, i64 114
  store i32 %57, ptr %59, align 8
  %60 = getelementptr inbounds %class.State, ptr %7, i32 0, i32 1
  %61 = getelementptr inbounds [315 x i16], ptr %60, i64 0, i64 114
  store i16 1005, ptr %61, align 4
  %62 = load i32, ptr %6, align 4
  %63 = add i32 %62, 100
  %64 = getelementptr inbounds %class.State, ptr %7, i32 0, i32 0
  %65 = getelementptr inbounds [315 x i32], ptr %64, i64 0, i64 115
  store i32 %63, ptr %65, align 4
  %66 = getelementptr inbounds %class.State, ptr %7, i32 0, i32 1
  %67 = getelementptr inbounds [315 x i16], ptr %66, i64 0, i64 115
  store i16 731, ptr %67, align 2
  br label %68

68:                                               ; preds = %49, %39, %34
  ret void
}