; Function Attrs: mustprogress nofree norecurse nosync nounwind willreturn memory(read, argmem: readwrite, inaccessiblemem: none) uwtable
define hidden void @_ZN5State18_sub_Op_LShiftCntVEPK4Node(ptr nocapture noundef nonnull align 8 dereferenceable(1920) %0, ptr nocapture readnone %1) local_unnamed_addr #1 align 2 {
  %3 = getelementptr inbounds i8, ptr %0, i64 1904
  %4 = load ptr, ptr %3, align 8
  %.not = icmp eq ptr %4, null
  br i1 %.not, label %27, label %5

5:                                                ; preds = %2
  %6 = getelementptr inbounds i8, ptr %4, i64 1294
  %7 = load i16, ptr %6, align 2
  %8 = and i16 %7, 1
  %.not4 = icmp eq i16 %8, 0
  br i1 %.not4, label %14, label %9

9:                                                ; preds = %5
  %10 = getelementptr inbounds i8, ptr %4, i64 68
  %11 = load i32, ptr %10, align 4
  %12 = getelementptr inbounds i8, ptr %0, i64 1180
  store i32 %11, ptr %12, align 4
  %13 = getelementptr inbounds i8, ptr %0, i64 1850
  store i16 591, ptr %13, align 2
  br label %14

14:                                               ; preds = %9, %5
  %15 = getelementptr inbounds i8, ptr %4, i64 1358
  %16 = load i16, ptr %15, align 2
  %17 = and i16 %16, 1
  %.not6 = icmp eq i16 %17, 0
  br i1 %.not6, label %27, label %18

18:                                               ; preds = %14
  %19 = getelementptr inbounds i8, ptr %4, i64 196
  %20 = load i32, ptr %19, align 4
  %21 = getelementptr inbounds i8, ptr %0, i64 456
  %22 = getelementptr inbounds i8, ptr %0, i64 1488
  store i16 1005, ptr %22, align 8
  %23 = insertelement <2 x i32> poison, i32 %20, i64 0
  %24 = shufflevector <2 x i32> %23, <2 x i32> poison, <2 x i32> zeroinitializer
  %25 = add <2 x i32> %24, <i32 100, i32 200>
  store <2 x i32> %25, ptr %21, align 8
  %26 = getelementptr inbounds i8, ptr %0, i64 1490
  store i16 731, ptr %26, align 2
  br label %27

27:                                               ; preds = %2, %18, %14
  ret void
}